target datalayout = "e-m:e-p270:32:32-p271:32:32-p272:64:64-i64:64-i128:128-f80:128-n8:16:32:64-S128"
target triple = "x86_64-pc-linux-gnu"

%struct.ShortTermRPS = type { [32 x i32], i32, i8, i8, i8, i8, i16, i8 }
%struct.PTL = type { %struct.PTLCommon, [7 x %struct.PTLCommon], [7 x i8], [7 x i8] }
%struct.PTLCommon = type { i8, i8, i8, [32 x i8], i8, i8, i8, i8, i8, i8, i8, i8, i8, i8, i8, i8, i8, i8, i8, i8 }
%struct.AVRational = type { i32, i32 }
%struct.HEVCSPS = type { i32, i32, %struct.HEVCWindow, %struct.HEVCWindow, %struct.HEVCHdrParams, i32, i32, i32, i32, i32, i32, [7 x %struct.anon.4], i32, %struct.VUI, %struct.PTL, %struct.ScalingList, i32, [64 x %struct.ShortTermRPS], [32 x i16], i32, i8, %struct.anon.5, i32, i32, i32, i32, i32, i32, i32, i32, i32, i8, i8, i8, i8, i8, i8, i8, i8, i8, i8, i8, i8, i8, i8, i8, i8, i8, i8, i8, i8, i8, i8, i8, i8, i8, i8, i8, i8, i8, i8, i32, i32, i32, [3 x [128 x i32]], i32, i32, i32, i32, i32, i32, i32, i32, i32, i32, i32, i32, i32, [3 x i32], [3 x i32], i32, ptr, i32, ptr }
%struct.HEVCWindow = type { i32, i32, i32, i32 }
%struct.HEVCHdrParams = type { %struct.HEVCHdrFlagParams, i8, i8, i8, i8, i8, i8, i8, i8, i8, i8, i8, i8, i8, [7 x i8], [7 x i16], [7 x %struct.HEVCSublayerHdrParams], [7 x %struct.HEVCSublayerHdrParams] }
%struct.HEVCHdrFlagParams = type { i8, i8, i8 }
%struct.HEVCSublayerHdrParams = type { [32 x i32], [32 x i32], [32 x i32], [32 x i32], i32 }
%struct.anon.4 = type { i32, i32, i32 }
%struct.VUI = type { %struct.H2645VUI, i32, i32, i32, i32, %struct.HEVCWindow, i32, i32, i32, i32, i32, i32, i32, i32, i32, i32, i32, i32, i32, i32, i32 }
%struct.H2645VUI = type { %struct.AVRational, i32, i32, i32, i32, i32, i32, i32, i32, i32, i32, i32, i32, i32, i32, i32 }
%struct.ScalingList = type { [4 x [6 x [64 x i8]]], [2 x [6 x i8]] }
%struct.anon.5 = type { i8, i8, i32, i32 }

; Function Attrs: nounwind uwtable
define internal void @set_deblocking_bypass(ptr noundef %0, ptr noundef %1, i32 noundef %2, i32 noundef %3, i32 noundef %4) #0 {
  %6 = alloca ptr, align 8
  %7 = alloca ptr, align 8
  %8 = alloca i32, align 4
  %9 = alloca i32, align 4
  %10 = alloca i32, align 4
  %11 = alloca i32, align 4
  %12 = alloca i32, align 4
  %13 = alloca i32, align 4
  %14 = alloca i32, align 4
  %15 = alloca i32, align 4
  %16 = alloca i32, align 4
  %17 = alloca i32, align 4
  store ptr %0, ptr %6, align 8, !tbaa !154
  store ptr %1, ptr %7, align 8, !tbaa !107
  store i32 %2, ptr %8, align 4, !tbaa !70
  store i32 %3, ptr %9, align 4, !tbaa !70
  store i32 %4, ptr %10, align 4, !tbaa !70
  call void @llvm.lifetime.start.p0(i64 4, ptr %11) #12
  %18 = load i32, ptr %10, align 4, !tbaa !70
  %19 = shl i32 1, %18
  store i32 %19, ptr %11, align 4, !tbaa !70
  call void @llvm.lifetime.start.p0(i64 4, ptr %12) #12
  %20 = load ptr, ptr %7, align 8, !tbaa !107
  %21 = getelementptr inbounds nuw %struct.HEVCSPS, ptr %20, i32 0, i32 27
  %22 = load i32, ptr %21, align 8, !tbaa !585
  store i32 %22, ptr %12, align 4, !tbaa !70
  call void @llvm.lifetime.start.p0(i64 4, ptr %13) #12
  %23 = load ptr, ptr %7, align 8, !tbaa !107
  %24 = getelementptr inbounds nuw %struct.HEVCSPS, ptr %23, i32 0, i32 75
  %25 = load i32, ptr %24, align 4, !tbaa !205
  store i32 %25, ptr %13, align 4, !tbaa !70
  call void @llvm.lifetime.start.p0(i64 4, ptr %14) #12
  %26 = load i32, ptr %8, align 4, !tbaa !70
  %27 = load i32, ptr %11, align 4, !tbaa !70
  %28 = add nsw i32 %26, %27
  %29 = load ptr, ptr %7, align 8, !tbaa !107
  %30 = getelementptr inbounds nuw %struct.HEVCSPS, ptr %29, i32 0, i32 66
  %31 = load i32, ptr %30, align 8, !tbaa !201
  %32 = icmp sgt i32 %28, %31
  br i1 %32, label %33, label %37

33:                                               ; preds = %5
  %34 = load ptr, ptr %7, align 8, !tbaa !107
  %35 = getelementptr inbounds nuw %struct.HEVCSPS, ptr %34, i32 0, i32 66
  %36 = load i32, ptr %35, align 8, !tbaa !201
  br label %41

37:                                               ; preds = %5
  %38 = load i32, ptr %8, align 4, !tbaa !70
  %39 = load i32, ptr %11, align 4, !tbaa !70
  %40 = add nsw i32 %38, %39
  br label %41

41:                                               ; preds = %37, %33
  %42 = phi i32 [ %36, %33 ], [ %40, %37 ]
  store i32 %42, ptr %14, align 4, !tbaa !70
  call void @llvm.lifetime.start.p0(i64 4, ptr %15) #12
  %43 = load i32, ptr %9, align 4, !tbaa !70
  %44 = load i32, ptr %11, align 4, !tbaa !70
  %45 = add nsw i32 %43, %44
  %46 = load ptr, ptr %7, align 8, !tbaa !107
  %47 = getelementptr inbounds nuw %struct.HEVCSPS, ptr %46, i32 0, i32 67
  %48 = load i32, ptr %47, align 4, !tbaa !202
  %49 = icmp sgt i32 %45, %48
  br i1 %49, label %50, label %54

50:                                               ; preds = %41
  %51 = load ptr, ptr %7, align 8, !tbaa !107
  %52 = getelementptr inbounds nuw %struct.HEVCSPS, ptr %51, i32 0, i32 67
  %53 = load i32, ptr %52, align 4, !tbaa !202
  br label %58

54:                                               ; preds = %41
  %55 = load i32, ptr %9, align 4, !tbaa !70
  %56 = load i32, ptr %11, align 4, !tbaa !70
  %57 = add nsw i32 %55, %56
  br label %58

58:                                               ; preds = %54, %50
  %59 = phi i32 [ %53, %50 ], [ %57, %54 ]
  store i32 %59, ptr %15, align 4, !tbaa !70
  call void @llvm.lifetime.start.p0(i64 4, ptr %16) #12
  call void @llvm.lifetime.start.p0(i64 4, ptr %17) #12
  %60 = load i32, ptr %9, align 4, !tbaa !70
  %61 = load i32, ptr %12, align 4, !tbaa !70
  %62 = ashr i32 %60, %61
  store i32 %62, ptr %17, align 4, !tbaa !70
  br label %63

63:                                               ; preds = %92, %58
  %64 = load i32, ptr %17, align 4, !tbaa !70
  %65 = load i32, ptr %15, align 4, !tbaa !70
  %66 = load i32, ptr %12, align 4, !tbaa !70
  %67 = ashr i32 %65, %66
  %68 = icmp slt i32 %64, %67
  br i1 %68, label %69, label %95

69:                                               ; preds = %63
  %70 = load i32, ptr %8, align 4, !tbaa !70
  %71 = load i32, ptr %12, align 4, !tbaa !70
  %72 = ashr i32 %70, %71
  store i32 %72, ptr %16, align 4, !tbaa !70
  br label %73

73:                                               ; preds = %88, %69
  %74 = load i32, ptr %16, align 4, !tbaa !70
  %75 = load i32, ptr %14, align 4, !tbaa !70
  %76 = load i32, ptr %12, align 4, !tbaa !70
  %77 = ashr i32 %75, %76
  %78 = icmp slt i32 %74, %77
  br i1 %78, label %79, label %91

79:                                               ; preds = %73
  %80 = load ptr, ptr %6, align 8, !tbaa !154
  %81 = load i32, ptr %16, align 4, !tbaa !70
  %82 = load i32, ptr %17, align 4, !tbaa !70
  %83 = load i32, ptr %13, align 4, !tbaa !70
  %84 = mul nsw i32 %82, %83
  %85 = add nsw i32 %81, %84
  %86 = sext i32 %85 to i64
  %87 = getelementptr inbounds i8, ptr %80, i64 %86
  store i8 2, ptr %87, align 1, !tbaa !78
  br label %88

88:                                               ; preds = %79
  %89 = load i32, ptr %16, align 4, !tbaa !70
  %90 = add nsw i32 %89, 1
  store i32 %90, ptr %16, align 4, !tbaa !70
  br label %73, !llvm.loop !586

91:                                               ; preds = %73
  br label %92

92:                                               ; preds = %91
  %93 = load i32, ptr %17, align 4, !tbaa !70
  %94 = add nsw i32 %93, 1
  store i32 %94, ptr %17, align 4, !tbaa !70
  br label %63, !llvm.loop !587

95:                                               ; preds = %63
  call void @llvm.lifetime.end.p0(i64 4, ptr %17) #12
  call void @llvm.lifetime.end.p0(i64 4, ptr %16) #12
  call void @llvm.lifetime.end.p0(i64 4, ptr %15) #12
  call void @llvm.lifetime.end.p0(i64 4, ptr %14) #12
  call void @llvm.lifetime.end.p0(i64 4, ptr %13) #12
  call void @llvm.lifetime.end.p0(i64 4, ptr %12) #12
  call void @llvm.lifetime.end.p0(i64 4, ptr %11) #12
  ret void
}