; Function Attrs: nofree norecurse nosync nounwind memory(argmem: readwrite) uwtable
define internal fastcc void @set_deblocking_bypass(ptr noundef writeonly captures(none) %0, ptr noundef readonly captures(none) %1, i32 noundef %2, i32 noundef %3, i32 noundef %4) unnamed_addr #10 {
  %6 = shl nuw i32 1, %4
  %7 = getelementptr inbounds nuw i8, ptr %1, i64 18616
  %8 = load i32, ptr %7, align 8, !tbaa !533
  %9 = getelementptr inbounds nuw i8, ptr %1, i64 20252
  %10 = load i32, ptr %9, align 4, !tbaa !201
  %11 = add nsw i32 %6, %3
  %12 = getelementptr inbounds nuw i8, ptr %1, i64 20220
  %13 = load i32, ptr %12, align 4, !tbaa !198
  %14 = tail call i32 @llvm.smin.i32(i32 %11, i32 %13)
  %15 = ashr i32 %3, %8
  %16 = ashr i32 %14, %8
  %17 = icmp slt i32 %15, %16
  br i1 %17, label %.lr.ph38, label %._crit_edge39

.lr.ph38:                                         ; preds = %5
  %18 = add nsw i32 %6, %2
  %19 = getelementptr inbounds nuw i8, ptr %1, i64 20216
  %20 = load i32, ptr %19, align 8, !tbaa !197
  %. = tail call i32 @llvm.smin.i32(i32 %18, i32 %20)
  %21 = ashr i32 %2, %8
  %22 = ashr i32 %., %8
  %23 = icmp slt i32 %21, %22
  br i1 %23, label %.lr.ph.us.preheader, label %._crit_edge39

.lr.ph.us.preheader:                              ; preds = %.lr.ph38
  %24 = mul i32 %10, %15
  %25 = add i32 %21, %24
  %26 = xor i32 %21, -1
  %27 = add i32 %22, %26
  %28 = zext i32 %27 to i64
  %29 = add nuw nsw i64 %28, 1
  %30 = sub i32 %16, %15
  br label %.lr.ph.us

.lr.ph.us:                                        ; preds = %.lr.ph.us.preheader, %.lr.ph.us
  %indvar = phi i32 [ 0, %.lr.ph.us.preheader ], [ %indvar.next, %.lr.ph.us ]
  %31 = mul i32 %10, %indvar
  %32 = add i32 %25, %31
  %33 = sext i32 %32 to i64
  %scevgep = getelementptr i8, ptr %0, i64 %33
  tail call void @llvm.memset.p0.i64(ptr noundef nonnull align 1 dereferenceable(1) %scevgep, i8 2, i64 %29, i1 false), !tbaa !74
  %indvar.next = add i32 %indvar, 1
  %exitcond.not = icmp eq i32 %indvar.next, %30
  br i1 %exitcond.not, label %._crit_edge39, label %.lr.ph.us, !llvm.loop !534

._crit_edge39:                                    ; preds = %.lr.ph.us, %.lr.ph38, %5
  ret void
}